(dp0
S'show_imports'
p1
I0
sS'prj_name'
p2
S'HDF map reader'
p3
sS'docformat'
p4
S'epytext'
p5
sS'inheritance'
p6
S'grouped'
p7
sS'help'
p8
NsS'modules'
p9
(S'/home/beto/workspace/HDF4MapReader-SF/src/dataValidator.py'
p10
S'/home/beto/workspace/HDF4MapReader-SF/src/hdfmr.py'
p11
S'/home/beto/workspace/HDF4MapReader-SF/src/HFDFhandler.py'
p12
S'/home/beto/workspace/HDF4MapReader-SF/src/Plotter.py'
p13
S'/home/beto/workspace/HDF4MapReader-SF/src/Reader.py'
p14
S'/home/beto/workspace/HDF4MapReader-SF/src/RIS.py'
p15
S'/home/beto/workspace/HDF4MapReader-SF/src/SDS.py'
p16
S'/home/beto/workspace/HDF4MapReader-SF/src/SDS_info.py'
p17
S'/home/beto/workspace/HDF4MapReader-SF/src/SDSchunk.py'
p18
S'/home/beto/workspace/HDF4MapReader-SF/src/Utils.py'
p19
S'/home/beto/workspace/HDF4MapReader-SF/src/VData.py'
p20
S'/home/beto/workspace/HDF4MapReader-SF/src/XMLparser.py'
p21
tp22
sS'private'
p23
I1
sS'prj_url'
p24
S'https://sourceforge.net/projects/hdf4mapreader/'
p25
sS'introspect_or_parse'
p26
S'both'
p27
sS'frames'
p28
I1
sS'css'
p29
S'grayscale'
p30
sS'target'
p31
S'/home/beto/workspace/HDF4MapReader-SF/src/docu'
p32
s.