(dp0
S'show_imports'
p1
I0
sS'prj_name'
p2
S'HDF4 Map Reader'
p3
sS'docformat'
p4
S'epytext'
p5
sS'inheritance'
p6
S'grouped'
p7
sS'help'
p8
NsS'modules'
p9
(S'/home/beto/workspace/HDF4MapReader/src/dataValidator.py'
p10
S'/home/beto/workspace/HDF4MapReader/src/hdf4MapReader.py'
p11
S'/home/beto/workspace/HDF4MapReader/src/HDFhandler.py'
p12
S'/home/beto/workspace/HDF4MapReader/src/Reader.py'
p13
S'/home/beto/workspace/HDF4MapReader/src/RIS.py'
p14
S'/home/beto/workspace/HDF4MapReader/src/SDS.py'
p15
S'/home/beto/workspace/HDF4MapReader/src/SDS_info.py'
p16
S'/home/beto/workspace/HDF4MapReader/src/SDSchunk.py'
p17
S'/home/beto/workspace/HDF4MapReader/src/Utils.py'
p18
S'/home/beto/workspace/HDF4MapReader/src/VData.py'
p19
S'/home/beto/workspace/HDF4MapReader/src/XMLparser.py'
p20
tp21
sS'private'
p22
I1
sS'prj_url'
p23
S'http://sourceforge.net/projects/hdf4mapreader/'
p24
sS'introspect_or_parse'
p25
S'both'
p26
sS'frames'
p27
I1
sS'css'
p28
S'default'
p29
sS'target'
p30
S'/home/beto/workspace/HDF4MapReader/src/docu'
p31
s.